; Function Attrs: mustprogress uwtable
define void @_ZN7rocksdb24PessimisticTransactionDB6UnLockEPNS_22PessimisticTransactionERKNS_11LockTrackerE(ptr noundef nonnull align 8 dereferenceable(520) %0, ptr noundef %1, ptr noundef nonnull align 8 dereferenceable(8) %2) local_unnamed_addr #4 align 2 {
  %4 = getelementptr inbounds nuw i8, ptr %0, i64 248
  %5 = load ptr, ptr %4, align 8, !tbaa !219
  %6 = load ptr, ptr %0, align 8, !tbaa !26
  %7 = getelementptr inbounds nuw i8, ptr %6, i64 776
  %8 = load ptr, ptr %7, align 8
  %9 = tail call noundef ptr %8(ptr noundef nonnull align 8 dereferenceable(32) %0)
  %10 = load ptr, ptr %5, align 8, !tbaa !26
  %11 = getelementptr inbounds nuw i8, ptr %10, i64 72
  %12 = load ptr, ptr %11, align 8
  tail call void %12(ptr noundef nonnull align 8 dereferenceable(8) %5, ptr noundef %1, ptr noundef nonnull align 8 dereferenceable(8) %2, ptr noundef %9)
  ret void
}